target datalayout = "e-m:e-p270:32:32-p271:32:32-p272:64:64-i64:64-i128:128-f80:128-n8:16:32:64-S128"
target triple = "x86_64-pc-linux-gnu"

%struct.rsa_st = type { i32, ptr, i32, ptr, ptr, ptr, ptr, ptr, ptr, ptr, ptr, ptr, ptr, %struct.rsa_pss_params_30_st, ptr, ptr, %struct.crypto_ex_data_st, %struct.CRYPTO_REF_COUNT, i32, ptr, ptr, ptr, ptr, ptr, ptr, i32 }
%struct.rsa_pss_params_30_st = type { i32, %struct.anon, i32, i32 }
%struct.anon = type { i32, i32 }
%struct.crypto_ex_data_st = type { ptr, ptr }
%struct.CRYPTO_REF_COUNT = type { i32 }
%struct.rsa_meth_st = type { ptr, ptr, ptr, ptr, ptr, ptr, ptr, ptr, ptr, i32, ptr, ptr, ptr, ptr, ptr }

@.str = private unnamed_addr constant [16 x i8] c"Conditional_PCT\00", align 1
@.str.1 = private unnamed_addr constant [32 x i8] c"../openssl/crypto/rsa/rsa_gen.c\00", align 1
@.str.2 = private unnamed_addr constant [4 x i8] c"RSA\00", align 1

; Function Attrs: nounwind uwtable
define internal i32 @rsa_keygen_pairwise_test(ptr noundef %0, ptr noundef %1, ptr noundef %2) #0 {
  %4 = alloca ptr, align 8
  %5 = alloca ptr, align 8
  %6 = alloca ptr, align 8
  %7 = alloca i32, align 4
  %8 = alloca i32, align 4
  %9 = alloca ptr, align 8
  %10 = alloca i32, align 4
  %11 = alloca ptr, align 8
  %12 = alloca ptr, align 8
  %13 = alloca i32, align 4
  %14 = alloca i32, align 4
  %15 = alloca ptr, align 8
  store ptr %0, ptr %4, align 8, !tbaa !3
  store ptr %1, ptr %5, align 8, !tbaa !34
  store ptr %2, ptr %6, align 8, !tbaa !34
  call void @llvm.lifetime.start.p0(i64 4, ptr %7) #5
  store i32 0, ptr %7, align 4, !tbaa !8
  call void @llvm.lifetime.start.p0(i64 4, ptr %8) #5
  call void @llvm.lifetime.start.p0(i64 8, ptr %9) #5
  store ptr null, ptr %9, align 8, !tbaa !71
  call void @llvm.lifetime.start.p0(i64 4, ptr %10) #5
  call void @llvm.lifetime.start.p0(i64 8, ptr %11) #5
  store ptr null, ptr %11, align 8, !tbaa !71
  call void @llvm.lifetime.start.p0(i64 8, ptr %12) #5
  store ptr null, ptr %12, align 8, !tbaa !71
  call void @llvm.lifetime.start.p0(i64 4, ptr %13) #5
  call void @llvm.lifetime.start.p0(i64 4, ptr %14) #5
  store i32 3, ptr %14, align 4, !tbaa !8
  call void @llvm.lifetime.start.p0(i64 8, ptr %15) #5
  store ptr null, ptr %15, align 8, !tbaa !72
  %16 = load ptr, ptr %5, align 8, !tbaa !34
  %17 = load ptr, ptr %6, align 8, !tbaa !34
  %18 = call ptr @OSSL_SELF_TEST_new(ptr noundef %16, ptr noundef %17)
  store ptr %18, ptr %15, align 8, !tbaa !72
  %19 = load ptr, ptr %15, align 8, !tbaa !72
  %20 = icmp eq ptr %19, null
  br i1 %20, label %21, label %22

21:                                               ; preds = %3
  br label %78

22:                                               ; preds = %3
  %23 = load ptr, ptr %15, align 8, !tbaa !72
  call void @OSSL_SELF_TEST_onbegin(ptr noundef %23, ptr noundef @.str, ptr noundef @.str.2)
  %24 = load ptr, ptr %4, align 8, !tbaa !3
  %25 = call i32 @RSA_size(ptr noundef %24)
  store i32 %25, ptr %8, align 4, !tbaa !8
  %26 = load i32, ptr %8, align 4, !tbaa !8
  %27 = mul i32 %26, 3
  %28 = zext i32 %27 to i64
  %29 = call noalias ptr @CRYPTO_zalloc(i64 noundef %28, ptr noundef @.str.1, i32 noundef 702)
  store ptr %29, ptr %9, align 8, !tbaa !71
  %30 = load ptr, ptr %9, align 8, !tbaa !71
  %31 = icmp eq ptr %30, null
  br i1 %31, label %32, label %33

32:                                               ; preds = %22
  br label %78

33:                                               ; preds = %22
  %34 = load ptr, ptr %9, align 8, !tbaa !71
  %35 = load i32, ptr %8, align 4, !tbaa !8
  %36 = zext i32 %35 to i64
  %37 = getelementptr inbounds nuw i8, ptr %34, i64 %36
  store ptr %37, ptr %11, align 8, !tbaa !71
  %38 = load ptr, ptr %11, align 8, !tbaa !71
  %39 = load i32, ptr %8, align 4, !tbaa !8
  %40 = zext i32 %39 to i64
  %41 = getelementptr inbounds nuw i8, ptr %38, i64 %40
  store ptr %41, ptr %12, align 8, !tbaa !71
  %42 = load ptr, ptr %9, align 8, !tbaa !71
  %43 = load i32, ptr %8, align 4, !tbaa !8
  %44 = sub i32 %43, 1
  %45 = zext i32 %44 to i64
  %46 = getelementptr inbounds nuw i8, ptr %42, i64 %45
  store i8 2, ptr %46, align 1, !tbaa !74
  %47 = load i32, ptr %8, align 4, !tbaa !8
  %48 = load ptr, ptr %9, align 8, !tbaa !71
  %49 = load ptr, ptr %11, align 8, !tbaa !71
  %50 = load ptr, ptr %4, align 8, !tbaa !3
  %51 = load i32, ptr %14, align 4, !tbaa !8
  %52 = call i32 @RSA_public_encrypt(i32 noundef %47, ptr noundef %48, ptr noundef %49, ptr noundef %50, i32 noundef %51)
  store i32 %52, ptr %10, align 4, !tbaa !8
  %53 = load i32, ptr %10, align 4, !tbaa !8
  %54 = icmp ule i32 %53, 0
  br i1 %54, label %55, label %56

55:                                               ; preds = %33
  br label %78

56:                                               ; preds = %33
  %57 = load ptr, ptr %15, align 8, !tbaa !72
  %58 = load ptr, ptr %11, align 8, !tbaa !71
  %59 = call i32 @OSSL_SELF_TEST_oncorrupt_byte(ptr noundef %57, ptr noundef %58)
  %60 = load i32, ptr %10, align 4, !tbaa !8
  %61 = load ptr, ptr %11, align 8, !tbaa !71
  %62 = load ptr, ptr %12, align 8, !tbaa !71
  %63 = load ptr, ptr %4, align 8, !tbaa !3
  %64 = load i32, ptr %14, align 4, !tbaa !8
  %65 = call i32 @RSA_private_decrypt(i32 noundef %60, ptr noundef %61, ptr noundef %62, ptr noundef %63, i32 noundef %64)
  store i32 %65, ptr %13, align 4, !tbaa !8
  %66 = load i32, ptr %13, align 4, !tbaa !8
  %67 = load i32, ptr %8, align 4, !tbaa !8
  %68 = icmp ne i32 %66, %67
  br i1 %68, label %76, label %69

69:                                               ; preds = %56
  %70 = load ptr, ptr %12, align 8, !tbaa !71
  %71 = load ptr, ptr %9, align 8, !tbaa !71
  %72 = load i32, ptr %13, align 4, !tbaa !8
  %73 = zext i32 %72 to i64
  %74 = call i32 @memcmp(ptr noundef %70, ptr noundef %71, i64 noundef %73) #6
  %75 = icmp ne i32 %74, 0
  br i1 %75, label %76, label %77

76:                                               ; preds = %69, %56
  br label %78

77:                                               ; preds = %69
  store i32 1, ptr %7, align 4, !tbaa !8
  br label %78

78:                                               ; preds = %77, %76, %55, %32, %21
  %79 = load ptr, ptr %15, align 8, !tbaa !72
  %80 = load i32, ptr %7, align 4, !tbaa !8
  call void @OSSL_SELF_TEST_onend(ptr noundef %79, i32 noundef %80)
  %81 = load ptr, ptr %15, align 8, !tbaa !72
  call void @OSSL_SELF_TEST_free(ptr noundef %81)
  %82 = load ptr, ptr %9, align 8, !tbaa !71
  call void @CRYPTO_free(ptr noundef %82, ptr noundef @.str.1, i32 noundef 728)
  %83 = load i32, ptr %7, align 4, !tbaa !8
  call void @llvm.lifetime.end.p0(i64 8, ptr %15) #5
  call void @llvm.lifetime.end.p0(i64 4, ptr %14) #5
  call void @llvm.lifetime.end.p0(i64 4, ptr %13) #5
  call void @llvm.lifetime.end.p0(i64 8, ptr %12) #5
  call void @llvm.lifetime.end.p0(i64 8, ptr %11) #5
  call void @llvm.lifetime.end.p0(i64 4, ptr %10) #5
  call void @llvm.lifetime.end.p0(i64 8, ptr %9) #5
  call void @llvm.lifetime.end.p0(i64 4, ptr %8) #5
  call void @llvm.lifetime.end.p0(i64 4, ptr %7) #5
  ret i32 %83
}

; Function Attrs: nounwind uwtable
define internal i32 @rsa_keygen(ptr noundef %0, ptr noundef %1, i32 noundef %2, i32 noundef %3, ptr noundef %4, ptr noundef %5, i32 noundef %6) #0 {
  %8 = alloca ptr, align 8
  %9 = alloca ptr, align 8
  %10 = alloca i32, align 4
  %11 = alloca i32, align 4
  %12 = alloca ptr, align 8
  %13 = alloca ptr, align 8
  %14 = alloca i32, align 4
  %15 = alloca i32, align 4
  %16 = alloca ptr, align 8
  %17 = alloca ptr, align 8
  store ptr %0, ptr %8, align 8, !tbaa !33
  store ptr %1, ptr %9, align 8, !tbaa !3
  store i32 %2, ptr %10, align 4, !tbaa !8
  store i32 %3, ptr %11, align 4, !tbaa !8
  store ptr %4, ptr %12, align 8, !tbaa !10
  store ptr %5, ptr %13, align 8, !tbaa !12
  store i32 %6, ptr %14, align 4, !tbaa !8
  call void @llvm.lifetime.start.p0(i64 4, ptr %15) #5
  store i32 0, ptr %15, align 4, !tbaa !8
  %18 = load i32, ptr %11, align 4, !tbaa !8
  %19 = icmp eq i32 %18, 2
  br i1 %19, label %20, label %36

20:                                               ; preds = %7
  %21 = load i32, ptr %10, align 4, !tbaa !8
  %22 = icmp sge i32 %21, 2048
  br i1 %22, label %23, label %36

23:                                               ; preds = %20
  %24 = load ptr, ptr %12, align 8, !tbaa !10
  %25 = icmp eq ptr %24, null
  br i1 %25, label %30, label %26

26:                                               ; preds = %23
  %27 = load ptr, ptr %12, align 8, !tbaa !10
  %28 = call i32 @BN_num_bits(ptr noundef %27)
  %29 = icmp sgt i32 %28, 16
  br i1 %29, label %30, label %36

30:                                               ; preds = %26, %23
  %31 = load ptr, ptr %9, align 8, !tbaa !3
  %32 = load i32, ptr %10, align 4, !tbaa !8
  %33 = load ptr, ptr %12, align 8, !tbaa !10
  %34 = load ptr, ptr %13, align 8, !tbaa !12
  %35 = call i32 @ossl_rsa_sp800_56b_generate_key(ptr noundef %31, i32 noundef %32, ptr noundef %33, ptr noundef %34)
  store i32 %35, ptr %15, align 4, !tbaa !8
  br label %43

36:                                               ; preds = %26, %20, %7
  %37 = load ptr, ptr %9, align 8, !tbaa !3
  %38 = load i32, ptr %10, align 4, !tbaa !8
  %39 = load i32, ptr %11, align 4, !tbaa !8
  %40 = load ptr, ptr %12, align 8, !tbaa !10
  %41 = load ptr, ptr %13, align 8, !tbaa !12
  %42 = call i32 @rsa_multiprime_keygen(ptr noundef %37, i32 noundef %38, i32 noundef %39, ptr noundef %40, ptr noundef %41)
  store i32 %42, ptr %15, align 4, !tbaa !8
  br label %43

43:                                               ; preds = %36, %30
  %44 = load i32, ptr %14, align 4, !tbaa !8
  %45 = icmp ne i32 %44, 0
  br i1 %45, label %46, label %89

46:                                               ; preds = %43
  %47 = load i32, ptr %15, align 4, !tbaa !8
  %48 = icmp sgt i32 %47, 0
  br i1 %48, label %49, label %89

49:                                               ; preds = %46
  call void @llvm.lifetime.start.p0(i64 8, ptr %16) #5
  store ptr null, ptr %16, align 8, !tbaa !34
  call void @llvm.lifetime.start.p0(i64 8, ptr %17) #5
  store ptr null, ptr %17, align 8, !tbaa !34
  %50 = load ptr, ptr %8, align 8, !tbaa !33
  call void @OSSL_SELF_TEST_get_callback(ptr noundef %50, ptr noundef %16, ptr noundef %17)
  %51 = load ptr, ptr %9, align 8, !tbaa !3
  %52 = load ptr, ptr %16, align 8, !tbaa !34
  %53 = load ptr, ptr %17, align 8, !tbaa !34
  %54 = call i32 @rsa_keygen_pairwise_test(ptr noundef %51, ptr noundef %52, ptr noundef %53)
  store i32 %54, ptr %15, align 4, !tbaa !8
  %55 = load i32, ptr %15, align 4, !tbaa !8
  %56 = icmp ne i32 %55, 0
  br i1 %56, label %88, label %57

57:                                               ; preds = %49
  call void @ossl_set_error_state(ptr noundef @.str)
  %58 = load ptr, ptr %9, align 8, !tbaa !3
  %59 = getelementptr inbounds nuw %struct.rsa_st, ptr %58, i32 0, i32 7
  %60 = load ptr, ptr %59, align 8, !tbaa !35
  call void @BN_clear_free(ptr noundef %60)
  %61 = load ptr, ptr %9, align 8, !tbaa !3
  %62 = getelementptr inbounds nuw %struct.rsa_st, ptr %61, i32 0, i32 8
  %63 = load ptr, ptr %62, align 8, !tbaa !36
  call void @BN_clear_free(ptr noundef %63)
  %64 = load ptr, ptr %9, align 8, !tbaa !3
  %65 = getelementptr inbounds nuw %struct.rsa_st, ptr %64, i32 0, i32 9
  %66 = load ptr, ptr %65, align 8, !tbaa !37
  call void @BN_clear_free(ptr noundef %66)
  %67 = load ptr, ptr %9, align 8, !tbaa !3
  %68 = getelementptr inbounds nuw %struct.rsa_st, ptr %67, i32 0, i32 10
  %69 = load ptr, ptr %68, align 8, !tbaa !38
  call void @BN_clear_free(ptr noundef %69)
  %70 = load ptr, ptr %9, align 8, !tbaa !3
  %71 = getelementptr inbounds nuw %struct.rsa_st, ptr %70, i32 0, i32 11
  %72 = load ptr, ptr %71, align 8, !tbaa !39
  call void @BN_clear_free(ptr noundef %72)
  %73 = load ptr, ptr %9, align 8, !tbaa !3
  %74 = getelementptr inbounds nuw %struct.rsa_st, ptr %73, i32 0, i32 12
  %75 = load ptr, ptr %74, align 8, !tbaa !40
  call void @BN_clear_free(ptr noundef %75)
  %76 = load ptr, ptr %9, align 8, !tbaa !3
  %77 = getelementptr inbounds nuw %struct.rsa_st, ptr %76, i32 0, i32 7
  store ptr null, ptr %77, align 8, !tbaa !35
  %78 = load ptr, ptr %9, align 8, !tbaa !3
  %79 = getelementptr inbounds nuw %struct.rsa_st, ptr %78, i32 0, i32 8
  store ptr null, ptr %79, align 8, !tbaa !36
  %80 = load ptr, ptr %9, align 8, !tbaa !3
  %81 = getelementptr inbounds nuw %struct.rsa_st, ptr %80, i32 0, i32 9
  store ptr null, ptr %81, align 8, !tbaa !37
  %82 = load ptr, ptr %9, align 8, !tbaa !3
  %83 = getelementptr inbounds nuw %struct.rsa_st, ptr %82, i32 0, i32 10
  store ptr null, ptr %83, align 8, !tbaa !38
  %84 = load ptr, ptr %9, align 8, !tbaa !3
  %85 = getelementptr inbounds nuw %struct.rsa_st, ptr %84, i32 0, i32 11
  store ptr null, ptr %85, align 8, !tbaa !39
  %86 = load ptr, ptr %9, align 8, !tbaa !3
  %87 = getelementptr inbounds nuw %struct.rsa_st, ptr %86, i32 0, i32 12
  store ptr null, ptr %87, align 8, !tbaa !40
  br label %88

88:                                               ; preds = %57, %49
  call void @llvm.lifetime.end.p0(i64 8, ptr %17) #5
  call void @llvm.lifetime.end.p0(i64 8, ptr %16) #5
  br label %89

89:                                               ; preds = %88, %46, %43
  %90 = load i32, ptr %15, align 4, !tbaa !8
  call void @llvm.lifetime.end.p0(i64 4, ptr %15) #5
  ret i32 %90
}

; Function Attrs: nounwind uwtable
define i32 @RSA_generate_multi_prime_key(ptr noundef %0, i32 noundef %1, i32 noundef %2, ptr noundef %3, ptr noundef %4) #0 {
  %6 = alloca i32, align 4
  %7 = alloca ptr, align 8
  %8 = alloca i32, align 4
  %9 = alloca i32, align 4
  %10 = alloca ptr, align 8
  %11 = alloca ptr, align 8
  store ptr %0, ptr %7, align 8, !tbaa !3
  store i32 %1, ptr %8, align 4, !tbaa !8
  store i32 %2, ptr %9, align 4, !tbaa !8
  store ptr %3, ptr %10, align 8, !tbaa !10
  store ptr %4, ptr %11, align 8, !tbaa !12
  %12 = load ptr, ptr %7, align 8, !tbaa !3
  %13 = getelementptr inbounds nuw %struct.rsa_st, ptr %12, i32 0, i32 3
  %14 = load ptr, ptr %13, align 8, !tbaa !14
  %15 = getelementptr inbounds nuw %struct.rsa_meth_st, ptr %14, i32 0, i32 14
  %16 = load ptr, ptr %15, align 8, !tbaa !31
  %17 = icmp ne ptr %16, null
  br i1 %17, label %18, label %30

18:                                               ; preds = %5
  %19 = load ptr, ptr %7, align 8, !tbaa !3
  %20 = getelementptr inbounds nuw %struct.rsa_st, ptr %19, i32 0, i32 3
  %21 = load ptr, ptr %20, align 8, !tbaa !14
  %22 = getelementptr inbounds nuw %struct.rsa_meth_st, ptr %21, i32 0, i32 14
  %23 = load ptr, ptr %22, align 8, !tbaa !31
  %24 = load ptr, ptr %7, align 8, !tbaa !3
  %25 = load i32, ptr %8, align 4, !tbaa !8
  %26 = load i32, ptr %9, align 4, !tbaa !8
  %27 = load ptr, ptr %10, align 8, !tbaa !10
  %28 = load ptr, ptr %11, align 8, !tbaa !12
  %29 = call i32 %23(ptr noundef %24, i32 noundef %25, i32 noundef %26, ptr noundef %27, ptr noundef %28)
  store i32 %29, ptr %6, align 4
  br label %63

30:                                               ; preds = %5
  %31 = load ptr, ptr %7, align 8, !tbaa !3
  %32 = getelementptr inbounds nuw %struct.rsa_st, ptr %31, i32 0, i32 3
  %33 = load ptr, ptr %32, align 8, !tbaa !14
  %34 = getelementptr inbounds nuw %struct.rsa_meth_st, ptr %33, i32 0, i32 13
  %35 = load ptr, ptr %34, align 8, !tbaa !28
  %36 = icmp ne ptr %35, null
  br i1 %36, label %37, label %52

37:                                               ; preds = %30
  %38 = load i32, ptr %9, align 4, !tbaa !8
  %39 = icmp eq i32 %38, 2
  br i1 %39, label %40, label %51

40:                                               ; preds = %37
  %41 = load ptr, ptr %7, align 8, !tbaa !3
  %42 = getelementptr inbounds nuw %struct.rsa_st, ptr %41, i32 0, i32 3
  %43 = load ptr, ptr %42, align 8, !tbaa !14
  %44 = getelementptr inbounds nuw %struct.rsa_meth_st, ptr %43, i32 0, i32 13
  %45 = load ptr, ptr %44, align 8, !tbaa !28
  %46 = load ptr, ptr %7, align 8, !tbaa !3
  %47 = load i32, ptr %8, align 4, !tbaa !8
  %48 = load ptr, ptr %10, align 8, !tbaa !10
  %49 = load ptr, ptr %11, align 8, !tbaa !12
  %50 = call i32 %45(ptr noundef %46, i32 noundef %47, ptr noundef %48, ptr noundef %49)
  store i32 %50, ptr %6, align 4
  br label %63

51:                                               ; preds = %37
  store i32 0, ptr %6, align 4
  br label %63

52:                                               ; preds = %30
  br label %53

53:                                               ; preds = %52
  %54 = load ptr, ptr %7, align 8, !tbaa !3
  %55 = getelementptr inbounds nuw %struct.rsa_st, ptr %54, i32 0, i32 1
  %56 = load ptr, ptr %55, align 8, !tbaa !32
  %57 = load ptr, ptr %7, align 8, !tbaa !3
  %58 = load i32, ptr %8, align 4, !tbaa !8
  %59 = load i32, ptr %9, align 4, !tbaa !8
  %60 = load ptr, ptr %10, align 8, !tbaa !10
  %61 = load ptr, ptr %11, align 8, !tbaa !12
  %62 = call i32 @rsa_keygen(ptr noundef %56, ptr noundef %57, i32 noundef %58, i32 noundef %59, ptr noundef %60, ptr noundef %61, i32 noundef 0)
  store i32 %62, ptr %6, align 4
  br label %63

63:                                               ; preds = %53, %51, %40, %18
  %64 = load i32, ptr %6, align 4
  ret i32 %64
}