; Function Attrs: nounwind uwtable
define i32 @RSA_generate_multi_prime_key(ptr noundef %0, i32 noundef %1, i32 noundef %2, ptr noundef %3, ptr noundef %4) local_unnamed_addr #0 {
  %6 = getelementptr inbounds nuw i8, ptr %0, i64 24
  %7 = load ptr, ptr %6, align 8, !tbaa !3
  %8 = getelementptr inbounds nuw i8, ptr %7, i64 112
  %9 = load ptr, ptr %8, align 8, !tbaa !25
  %.not = icmp eq ptr %9, null
  br i1 %.not, label %12, label %10

10:                                               ; preds = %5
  %11 = tail call i32 %9(ptr noundef nonnull %0, i32 noundef %1, i32 noundef %2, ptr noundef %3, ptr noundef %4) #4
  br label %rsa_keygen.exit

12:                                               ; preds = %5
  %13 = getelementptr inbounds nuw i8, ptr %7, i64 104
  %14 = load ptr, ptr %13, align 8, !tbaa !22
  %.not22 = icmp eq ptr %14, null
  %15 = icmp eq i32 %2, 2
  br i1 %.not22, label %19, label %16

16:                                               ; preds = %12
  br i1 %15, label %17, label %rsa_keygen.exit

17:                                               ; preds = %16
  %18 = tail call i32 %14(ptr noundef nonnull %0, i32 noundef %1, ptr noundef %3, ptr noundef %4) #4
  br label %rsa_keygen.exit

19:                                               ; preds = %12
  %20 = icmp sgt i32 %1, 2047
  %or.cond.i = and i1 %20, %15
  br i1 %or.cond.i, label %22, label %.split.i

.split.i:                                         ; preds = %19
  %21 = tail call fastcc i32 @rsa_multiprime_keygen(ptr noundef nonnull %0, i32 noundef %1, i32 noundef %2, ptr noundef %3, ptr noundef %4)
  br label %rsa_keygen.exit

22:                                               ; preds = %19
  %23 = icmp eq ptr %3, null
  br i1 %23, label %28, label %24

24:                                               ; preds = %22
  %25 = tail call i32 @BN_num_bits(ptr noundef nonnull %3) #4
  %26 = icmp sgt i32 %25, 16
  br i1 %26, label %28, label %.split33.i

.split33.i:                                       ; preds = %24
  %27 = tail call fastcc i32 @rsa_multiprime_keygen(ptr noundef nonnull %0, i32 noundef %1, i32 noundef 2, ptr noundef nonnull %3, ptr noundef %4)
  br label %rsa_keygen.exit

28:                                               ; preds = %24, %22
  %29 = tail call i32 @ossl_rsa_sp800_56b_generate_key(ptr noundef nonnull %0, i32 noundef %1, ptr noundef %3, ptr noundef %4) #4
  br label %rsa_keygen.exit

rsa_keygen.exit:                                  ; preds = %28, %.split33.i, %.split.i, %16, %17, %10
  %.0 = phi i32 [ %11, %10 ], [ %18, %17 ], [ 0, %16 ], [ %29, %28 ], [ %21, %.split.i ], [ %27, %.split33.i ]
  ret i32 %.0
}